; Function Attrs: mustprogress nounwind uwtable
define hidden void @flush() local_unnamed_addr #1 {
  %1 = tail call align 8 ptr @llvm.threadlocal.address.p0(ptr align 8 @_ZN6Thread12_thr_currentE)
  %2 = load ptr, ptr %1, align 8
  %3 = getelementptr inbounds i8, ptr %2, i64 800
  %4 = load ptr, ptr %3, align 8
  %5 = getelementptr inbounds i8, ptr %4, i64 24
  %6 = load ptr, ptr %5, align 8
  %7 = getelementptr inbounds i8, ptr %4, i64 32
  %8 = load ptr, ptr %7, align 8
  %9 = getelementptr inbounds i8, ptr %4, i64 40
  %10 = load ptr, ptr %9, align 8
  %11 = getelementptr inbounds i8, ptr %4, i64 8
  %12 = load i64, ptr %11, align 8
  %13 = load i32, ptr @_ZN16DebuggingContext8_enabledE, align 4
  %14 = add nsw i32 %13, 1
  store i32 %14, ptr @_ZN16DebuggingContext8_enabledE, align 4
  %15 = load i32, ptr @_ZN7Command5levelE, align 4
  %16 = add nsw i32 %15, 1
  store i32 %16, ptr @_ZN7Command5levelE, align 4
  %17 = icmp sgt i32 %15, 0
  br i1 %17, label %_ZN7CommandC2EPKc.exit, label %18

18:                                               ; preds = %0
  %19 = load ptr, ptr @tty, align 8
  tail call void @_ZN12outputStream2crEv(ptr noundef nonnull align 8 dereferenceable(56) %19) #16
  %20 = load ptr, ptr @tty, align 8
  tail call void (ptr, ptr, ...) @_ZN12outputStream8print_crEPKcz(ptr noundef nonnull align 8 dereferenceable(56) %20, ptr noundef nonnull @.str.82, ptr noundef nonnull @.str.38) #16
  br label %_ZN7CommandC2EPKc.exit

_ZN7CommandC2EPKc.exit:                           ; preds = %0, %18
  %21 = load ptr, ptr @tty, align 8
  %22 = load ptr, ptr %21, align 8
  %23 = load ptr, ptr %22, align 8
  tail call void %23(ptr noundef nonnull align 8 dereferenceable(56) %21) #16
  %24 = load ptr, ptr @tty, align 8
  %25 = load ptr, ptr %24, align 8
  %26 = load ptr, ptr %25, align 8
  tail call void %26(ptr noundef nonnull align 8 dereferenceable(56) %24) #16
  %27 = load i32, ptr @_ZN7Command5levelE, align 4
  %28 = add nsw i32 %27, -1
  store i32 %28, ptr @_ZN7Command5levelE, align 4
  %29 = load i32, ptr @_ZN16DebuggingContext8_enabledE, align 4
  %30 = icmp sgt i32 %29, 0
  br i1 %30, label %_ZN16DebuggingContextD2Ev.exit.i, label %31

31:                                               ; preds = %_ZN7CommandC2EPKc.exit
  %32 = load ptr, ptr @g_assert_poison, align 8
  store i8 88, ptr %32, align 1
  tail call void (i32, ptr, i32, ptr, ...) @_Z12report_fatal11VMErrorTypePKciS1_z(i32 noundef -536870912, ptr noundef nonnull @.str, i32 noundef 91, ptr noundef nonnull @.str.4) #15
  unreachable

_ZN16DebuggingContextD2Ev.exit.i:                 ; preds = %_ZN7CommandC2EPKc.exit
  %33 = add nsw i32 %29, -1
  store i32 %33, ptr @_ZN16DebuggingContext8_enabledE, align 4
  %34 = load ptr, ptr %6, align 8
  %.not.i.i.i.i.i = icmp eq ptr %34, null
  br i1 %.not.i.i.i.i.i, label %36, label %35

35:                                               ; preds = %_ZN16DebuggingContextD2Ev.exit.i
  tail call void @_ZN5Arena17set_size_in_bytesEm(ptr noundef nonnull align 8 dereferenceable(48) %4, i64 noundef %12) #16
  tail call void @_ZN5Chunk9next_chopEPS_(ptr noundef nonnull %6) #16
  br label %36

36:                                               ; preds = %35, %_ZN16DebuggingContextD2Ev.exit.i
  %37 = load ptr, ptr %7, align 8
  %.not8.i.i.i.i.i = icmp eq ptr %37, %8
  br i1 %.not8.i.i.i.i.i, label %_ZN7CommandD2Ev.exit, label %38

38:                                               ; preds = %36
  store ptr %6, ptr %5, align 8
  store ptr %8, ptr %7, align 8
  store ptr %10, ptr %9, align 8
  br label %_ZN7CommandD2Ev.exit

_ZN7CommandD2Ev.exit:                             ; preds = %36, %38
  ret void
}